target datalayout = "e-m:e-p270:32:32-p271:32:32-p272:64:64-i64:64-i128:128-f80:128-n8:16:32:64-S128"
target triple = "x86_64-pc-linux-gnu"

%struct.gc_config = type { i32, i32, i32, i64, i32, i32, i32, i32, i32, ptr, ptr, ptr, ptr, ptr, i64, i64, i64 }
%struct.repository = type { ptr, ptr, ptr, ptr, ptr, %struct.strmap, %struct.strmap, %struct.repo_path_cache, ptr, ptr, ptr, ptr, %struct.repo_settings, ptr, ptr, ptr, ptr, ptr, ptr, i32, i32, i32, ptr, ptr, i32, i32, i8 }
%struct.strmap = type { %struct.hashmap, ptr, i8 }
%struct.hashmap = type { ptr, ptr, ptr, i32, i32, i32, i32, i8 }
%struct.repo_path_cache = type { ptr, ptr, ptr, ptr, ptr, ptr, ptr }
%struct.repo_settings = type { i32, i32, i32, i32, i32, i32, i32, i32, i32, i32, i32, i32, ptr, i32, i32, i32, i32, i32, i32, i32, i64, i64, i64 }
%struct.git_hash_algo = type { ptr, i32, i64, i64, i64, ptr, ptr, ptr, ptr, ptr, ptr, ptr, ptr, ptr }
%struct.dirent = type { i64, i64, i16, i8, [256 x i8] }

@the_repository = external global ptr, align 8
@.str.102 = private unnamed_addr constant [11 x i8] c"objects/17\00", align 1
@.str.103 = private unnamed_addr constant [17 x i8] c"0123456789abcdef\00", align 1

; Function Attrs: nounwind uwtable
define internal i32 @too_many_loose_objects(ptr noundef %0) #0 {
  %2 = alloca i32, align 4
  %3 = alloca ptr, align 8
  %4 = alloca ptr, align 8
  %5 = alloca ptr, align 8
  %6 = alloca i32, align 4
  %7 = alloca i32, align 4
  %8 = alloca i32, align 4
  %9 = alloca i32, align 4
  %10 = alloca i32, align 4
  store ptr %0, ptr %3, align 8, !tbaa !90
  call void @llvm.lifetime.start.p0(i64 8, ptr %4) #11
  call void @llvm.lifetime.start.p0(i64 8, ptr %5) #11
  call void @llvm.lifetime.start.p0(i64 4, ptr %6) #11
  call void @llvm.lifetime.start.p0(i64 4, ptr %7) #11
  store i32 0, ptr %7, align 4, !tbaa !4
  call void @llvm.lifetime.start.p0(i64 4, ptr %8) #11
  store i32 0, ptr %8, align 4, !tbaa !4
  call void @llvm.lifetime.start.p0(i64 4, ptr %9) #11
  %11 = load ptr, ptr @the_repository, align 8, !tbaa !13
  %12 = getelementptr inbounds nuw %struct.repository, ptr %11, i32 0, i32 17
  %13 = load ptr, ptr %12, align 8, !tbaa !121
  %14 = getelementptr inbounds nuw %struct.git_hash_algo, ptr %13, i32 0, i32 3
  %15 = load i64, ptr %14, align 8, !tbaa !122
  %16 = sub i64 %15, 2
  %17 = trunc i64 %16 to i32
  store i32 %17, ptr %9, align 4, !tbaa !4
  %18 = call ptr (ptr, ...) @git_path(ptr noundef @.str.102)
  %19 = call ptr @opendir(ptr noundef %18)
  store ptr %19, ptr %4, align 8, !tbaa !125
  %20 = load ptr, ptr %4, align 8, !tbaa !125
  %21 = icmp ne ptr %20, null
  br i1 %21, label %23, label %22

22:                                               ; preds = %1
  store i32 0, ptr %2, align 4
  store i32 1, ptr %10, align 4
  br label %63

23:                                               ; preds = %1
  %24 = load ptr, ptr %3, align 8, !tbaa !90
  %25 = getelementptr inbounds nuw %struct.gc_config, ptr %24, i32 0, i32 6
  %26 = load i32, ptr %25, align 8, !tbaa !23
  %27 = add nsw i32 %26, 256
  %28 = sub nsw i32 %27, 1
  %29 = sdiv i32 %28, 256
  store i32 %29, ptr %6, align 4, !tbaa !4
  br label %30

30:                                               ; preds = %58, %51, %23
  %31 = load ptr, ptr %4, align 8, !tbaa !125
  %32 = call ptr @readdir64(ptr noundef %31)
  store ptr %32, ptr %5, align 8, !tbaa !127
  %33 = icmp ne ptr %32, null
  br i1 %33, label %34, label %59

34:                                               ; preds = %30
  %35 = load ptr, ptr %5, align 8, !tbaa !127
  %36 = getelementptr inbounds nuw %struct.dirent, ptr %35, i32 0, i32 4
  %37 = getelementptr inbounds [256 x i8], ptr %36, i64 0, i64 0
  %38 = call i64 @strspn(ptr noundef %37, ptr noundef @.str.103) #13
  %39 = load i32, ptr %9, align 4, !tbaa !4
  %40 = zext i32 %39 to i64
  %41 = icmp ne i64 %38, %40
  br i1 %41, label %51, label %42

42:                                               ; preds = %34
  %43 = load ptr, ptr %5, align 8, !tbaa !127
  %44 = getelementptr inbounds nuw %struct.dirent, ptr %43, i32 0, i32 4
  %45 = load i32, ptr %9, align 4, !tbaa !4
  %46 = zext i32 %45 to i64
  %47 = getelementptr inbounds nuw [256 x i8], ptr %44, i64 0, i64 %46
  %48 = load i8, ptr %47, align 1, !tbaa !93
  %49 = sext i8 %48 to i32
  %50 = icmp ne i32 %49, 0
  br i1 %50, label %51, label %52

51:                                               ; preds = %42, %34
  br label %30, !llvm.loop !129

52:                                               ; preds = %42
  %53 = load i32, ptr %7, align 4, !tbaa !4
  %54 = add nsw i32 %53, 1
  store i32 %54, ptr %7, align 4, !tbaa !4
  %55 = load i32, ptr %6, align 4, !tbaa !4
  %56 = icmp sgt i32 %54, %55
  br i1 %56, label %57, label %58

57:                                               ; preds = %52
  store i32 1, ptr %8, align 4, !tbaa !4
  br label %59

58:                                               ; preds = %52
  br label %30, !llvm.loop !129

59:                                               ; preds = %57, %30
  %60 = load ptr, ptr %4, align 8, !tbaa !125
  %61 = call i32 @closedir(ptr noundef %60)
  %62 = load i32, ptr %8, align 4, !tbaa !4
  store i32 %62, ptr %2, align 4
  store i32 1, ptr %10, align 4
  br label %63

63:                                               ; preds = %59, %22
  call void @llvm.lifetime.end.p0(i64 4, ptr %9) #11
  call void @llvm.lifetime.end.p0(i64 4, ptr %8) #11
  call void @llvm.lifetime.end.p0(i64 4, ptr %7) #11
  call void @llvm.lifetime.end.p0(i64 4, ptr %6) #11
  call void @llvm.lifetime.end.p0(i64 8, ptr %5) #11
  call void @llvm.lifetime.end.p0(i64 8, ptr %4) #11
  %64 = load i32, ptr %2, align 4
  ret i32 %64
}