; Function Attrs: nounwind uwtable
define internal fastcc range(i32 0, 2) i32 @too_many_loose_objects(ptr noundef readonly captures(none) %0) unnamed_addr #0 {
  %2 = load ptr, ptr @the_repository, align 8, !tbaa !42
  %3 = getelementptr inbounds nuw i8, ptr %2, i64 400
  %4 = load ptr, ptr %3, align 8, !tbaa !109
  %5 = getelementptr inbounds nuw i8, ptr %4, i64 24
  %6 = load i64, ptr %5, align 8, !tbaa !110
  %7 = tail call ptr (ptr, ...) @git_path(ptr noundef nonnull @.str.102)
  %8 = tail call ptr @opendir(ptr noundef %7)
  %.not = icmp eq ptr %8, null
  br i1 %.not, label %28, label %9

9:                                                ; preds = %1
  %10 = add i64 %6, 4294967294
  %11 = getelementptr inbounds nuw i8, ptr %0, i64 32
  %12 = load i32, ptr %11, align 8, !tbaa !18
  %13 = add nsw i32 %12, 255
  %14 = sdiv i32 %13, 256
  %15 = and i64 %10, 4294967295
  %smax = tail call i32 @llvm.smax.i32(i32 %14, i32 0)
  br label %.outer

.outer:                                           ; preds = %25, %9
  %.012.ph = phi i32 [ %26, %25 ], [ 0, %9 ]
  %16 = tail call ptr @readdir64(ptr noundef nonnull %8) #21
  %.not1722 = icmp eq ptr %16, null
  br i1 %.not1722, label %.loopexit, label %.lr.ph

.lr.ph:                                           ; preds = %.outer, %23
  %17 = phi ptr [ %24, %23 ], [ %16, %.outer ]
  %18 = getelementptr inbounds nuw i8, ptr %17, i64 19
  %19 = tail call i64 @strspn(ptr noundef nonnull %18, ptr noundef nonnull @.str.103) #25
  %.not18 = icmp eq i64 %19, %15
  br i1 %.not18, label %20, label %23

20:                                               ; preds = %.lr.ph
  %21 = getelementptr inbounds nuw [256 x i8], ptr %18, i64 0, i64 %15
  %22 = load i8, ptr %21, align 1, !tbaa !102
  %.not19 = icmp eq i8 %22, 0
  br i1 %.not19, label %25, label %23

23:                                               ; preds = %20, %.lr.ph
  %24 = tail call ptr @readdir64(ptr noundef nonnull %8) #21
  %.not17 = icmp eq ptr %24, null
  br i1 %.not17, label %.loopexit, label %.lr.ph, !llvm.loop !113

25:                                               ; preds = %20
  %26 = add nuw nsw i32 %.012.ph, 1
  %exitcond.not = icmp eq i32 %.012.ph, %smax
  br i1 %exitcond.not, label %.loopexit, label %.outer, !llvm.loop !113

.loopexit:                                        ; preds = %25, %.outer, %23
  %.011 = phi i32 [ 0, %23 ], [ 0, %.outer ], [ 1, %25 ]
  %27 = tail call i32 @closedir(ptr noundef nonnull %8)
  br label %28

28:                                               ; preds = %1, %.loopexit
  %.0 = phi i32 [ %.011, %.loopexit ], [ 0, %1 ]
  ret i32 %.0
}